; Function Attrs: mustprogress nounwind uwtable
define dso_local void @_ZN4Fact14doFinalizationEv() local_unnamed_addr #3 align 2 personality ptr @__gxx_personality_v0 {
  %1 = load ptr, ptr @_ZN4Fact6facts_E, align 8
  %2 = load ptr, ptr getelementptr inbounds (%"class.std::vector", ptr @_ZN4Fact6facts_E, i64 0, i32 0, i32 0, i32 0, i32 1), align 8
  %.not4 = icmp eq ptr %1, %2
  br i1 %.not4, label %_ZNSt6vectorIP4FactSaIS1_EE5clearEv.exit, label %.lr.ph

.lr.ph:                                           ; preds = %0, %10
  %3 = phi ptr [ %11, %10 ], [ %2, %0 ]
  %.sroa.01.05 = phi ptr [ %12, %10 ], [ %1, %0 ]
  %4 = load ptr, ptr %.sroa.01.05, align 8
  %5 = icmp eq ptr %4, null
  br i1 %5, label %10, label %6

6:                                                ; preds = %.lr.ph
  %7 = load ptr, ptr %4, align 8
  %8 = getelementptr inbounds i8, ptr %7, i64 8
  %9 = load ptr, ptr %8, align 8
  tail call void %9(ptr noundef nonnull align 8 dereferenceable(12) %4) #19
  %.pre = load ptr, ptr getelementptr inbounds (%"class.std::vector", ptr @_ZN4Fact6facts_E, i64 0, i32 0, i32 0, i32 0, i32 1), align 8
  br label %10

10:                                               ; preds = %.lr.ph, %6
  %11 = phi ptr [ %3, %.lr.ph ], [ %.pre, %6 ]
  %12 = getelementptr inbounds i8, ptr %.sroa.01.05, i64 8
  %.not = icmp eq ptr %12, %11
  br i1 %.not, label %._crit_edge, label %.lr.ph, !llvm.loop !9

._crit_edge:                                      ; preds = %10
  %.pre7 = load ptr, ptr @_ZN4Fact6facts_E, align 8
  %.not.i.i = icmp eq ptr %11, %.pre7
  br i1 %.not.i.i, label %_ZNSt6vectorIP4FactSaIS1_EE5clearEv.exit, label %13

13:                                               ; preds = %._crit_edge
  store ptr %.pre7, ptr getelementptr inbounds (%"class.std::vector", ptr @_ZN4Fact6facts_E, i64 0, i32 0, i32 0, i32 0, i32 1), align 8
  br label %_ZNSt6vectorIP4FactSaIS1_EE5clearEv.exit

_ZNSt6vectorIP4FactSaIS1_EE5clearEv.exit:         ; preds = %0, %._crit_edge, %13
  ret void
}